target datalayout = "e-m:e-p270:32:32-p271:32:32-p272:64:64-i64:64-i128:128-f80:128-n8:16:32:64-S128"
target triple = "x86_64-pc-linux-gnu"

%struct.cts_mode_name2id_st = type { i32, ptr }

@cts_modes = internal global [3 x { i32, [4 x i8], ptr }] [{ i32, [4 x i8], ptr } { i32 0, [4 x i8] zeroinitializer, ptr @.str }, { i32, [4 x i8], ptr } { i32 1, [4 x i8] zeroinitializer, ptr @.str.1 }, { i32, [4 x i8], ptr } { i32 2, [4 x i8] zeroinitializer, ptr @.str.2 }], align 16

; Function Attrs: nounwind uwtable
define i32 @ossl_cipher_cbc_cts_mode_name2id(ptr noundef %0) #0 {
  %2 = alloca i32, align 4
  %3 = alloca ptr, align 8
  %4 = alloca i64, align 8
  %5 = alloca i32, align 4
  store ptr %0, ptr %3, align 8, !tbaa !16
  call void @llvm.lifetime.start.p0(i64 8, ptr %4) #5
  store i64 0, ptr %4, align 8, !tbaa !7
  br label %6

6:                                                ; preds = %23, %1
  %7 = load i64, ptr %4, align 8, !tbaa !7
  %8 = icmp ult i64 %7, 3
  br i1 %8, label %9, label %26

9:                                                ; preds = %6
  %10 = load ptr, ptr %3, align 8, !tbaa !16
  %11 = load i64, ptr %4, align 8, !tbaa !7
  %12 = getelementptr inbounds nuw [3 x %struct.cts_mode_name2id_st], ptr @cts_modes, i64 0, i64 %11
  %13 = getelementptr inbounds nuw %struct.cts_mode_name2id_st, ptr %12, i32 0, i32 1
  %14 = load ptr, ptr %13, align 8, !tbaa !13
  %15 = call i32 @OPENSSL_strcasecmp(ptr noundef %10, ptr noundef %14)
  %16 = icmp eq i32 %15, 0
  br i1 %16, label %17, label %22

17:                                               ; preds = %9
  %18 = load i64, ptr %4, align 8, !tbaa !7
  %19 = getelementptr inbounds nuw [3 x %struct.cts_mode_name2id_st], ptr @cts_modes, i64 0, i64 %18
  %20 = getelementptr inbounds nuw %struct.cts_mode_name2id_st, ptr %19, i32 0, i32 0
  %21 = load i32, ptr %20, align 16, !tbaa !9
  store i32 %21, ptr %2, align 4
  store i32 1, ptr %5, align 4
  br label %27

22:                                               ; preds = %9
  br label %23

23:                                               ; preds = %22
  %24 = load i64, ptr %4, align 8, !tbaa !7
  %25 = add i64 %24, 1
  store i64 %25, ptr %4, align 8, !tbaa !7
  br label %6, !llvm.loop !17

26:                                               ; preds = %6
  store i32 -1, ptr %2, align 4
  store i32 1, ptr %5, align 4
  br label %27

27:                                               ; preds = %26, %17
  call void @llvm.lifetime.end.p0(i64 8, ptr %4) #5
  %28 = load i32, ptr %2, align 4
  ret i32 %28
}