; Function Attrs: nounwind uwtable
define i32 @ossl_cipher_cbc_cts_mode_name2id(ptr noundef %0) local_unnamed_addr #2 {
  br label %4

2:                                                ; preds = %4
  %3 = add nuw nsw i64 %.06, 1
  %exitcond.not = icmp eq i64 %3, 3
  br i1 %exitcond.not, label %.loopexit, label %4, !llvm.loop !13

4:                                                ; preds = %1, %2
  %.06 = phi i64 [ 0, %1 ], [ %3, %2 ]
  %5 = getelementptr inbounds nuw [3 x %struct.cts_mode_name2id_st], ptr @cts_modes, i64 0, i64 %.06
  %6 = getelementptr inbounds nuw i8, ptr %5, i64 8
  %7 = load ptr, ptr %6, align 8, !tbaa !12
  %8 = tail call i32 @OPENSSL_strcasecmp(ptr noundef %0, ptr noundef %7) #7
  %9 = icmp eq i32 %8, 0
  br i1 %9, label %10, label %2

10:                                               ; preds = %4
  %11 = load i32, ptr %5, align 16, !tbaa !5
  br label %.loopexit

.loopexit:                                        ; preds = %2, %10
  %.05 = phi i32 [ %11, %10 ], [ -1, %2 ]
  ret i32 %.05
}